target datalayout = "e-m:e-p270:32:32-p271:32:32-p272:64:64-i64:64-i128:128-f80:128-n8:16:32:64-S128"
target triple = "x86_64-pc-linux-gnu"

%struct.ossl_param_st = type { ptr, i32, ptr, i64, i64 }

@.str.33 = private unnamed_addr constant [39 x i8] c"../openssl/test/provider_status_test.c\00", align 1
@.str.35 = private unnamed_addr constant [7 x i8] c"status\00", align 1
@.str.36 = private unnamed_addr constant [39 x i8] c"OSSL_PROVIDER_get_params(prov, params)\00", align 1
@.str.37 = private unnamed_addr constant [12 x i8] c"status == 1\00", align 1
@.str.47 = private unnamed_addr constant [47 x i8] c"gettable = OSSL_PROVIDER_gettable_params(prov)\00", align 1
@.str.48 = private unnamed_addr constant [60 x i8] c"p = OSSL_PARAM_locate_const(gettable, OSSL_PROV_PARAM_NAME)\00", align 1
@.str.49 = private unnamed_addr constant [5 x i8] c"name\00", align 1
@.str.50 = private unnamed_addr constant [63 x i8] c"p = OSSL_PARAM_locate_const(gettable, OSSL_PROV_PARAM_VERSION)\00", align 1
@.str.51 = private unnamed_addr constant [8 x i8] c"version\00", align 1
@.str.52 = private unnamed_addr constant [62 x i8] c"p = OSSL_PARAM_locate_const(gettable, OSSL_PROV_PARAM_STATUS)\00", align 1
@.str.53 = private unnamed_addr constant [65 x i8] c"p = OSSL_PARAM_locate_const(gettable, OSSL_PROV_PARAM_BUILDINFO)\00", align 1
@.str.54 = private unnamed_addr constant [10 x i8] c"buildinfo\00", align 1
@.str.55 = private unnamed_addr constant [32 x i8] c"OSSL_PARAM_modified(params + 0)\00", align 1
@.str.56 = private unnamed_addr constant [32 x i8] c"OSSL_PARAM_modified(params + 1)\00", align 1
@.str.57 = private unnamed_addr constant [32 x i8] c"OSSL_PARAM_modified(params + 2)\00", align 1
@.str.58 = private unnamed_addr constant [32 x i8] c"OSSL_PARAM_modified(params + 3)\00", align 1

; Function Attrs: nounwind uwtable
define internal i32 @get_provider_params(ptr noundef %0) #0 {
  %2 = alloca ptr, align 8
  %3 = alloca i32, align 4
  %4 = alloca [5 x %struct.ossl_param_st], align 16
  %5 = alloca ptr, align 8
  %6 = alloca ptr, align 8
  %7 = alloca ptr, align 8
  %8 = alloca i32, align 4
  %9 = alloca ptr, align 8
  %10 = alloca ptr, align 8
  %11 = alloca %struct.ossl_param_st, align 8
  %12 = alloca %struct.ossl_param_st, align 8
  %13 = alloca %struct.ossl_param_st, align 8
  %14 = alloca %struct.ossl_param_st, align 8
  %15 = alloca %struct.ossl_param_st, align 8
  store ptr %0, ptr %2, align 8, !tbaa !20
  call void @llvm.lifetime.start.p0(i64 4, ptr %3) #5
  store i32 0, ptr %3, align 4, !tbaa !9
  call void @llvm.lifetime.start.p0(i64 200, ptr %4) #5
  call void @llvm.lifetime.start.p0(i64 8, ptr %5) #5
  call void @llvm.lifetime.start.p0(i64 8, ptr %6) #5
  call void @llvm.lifetime.start.p0(i64 8, ptr %7) #5
  call void @llvm.lifetime.start.p0(i64 4, ptr %8) #5
  call void @llvm.lifetime.start.p0(i64 8, ptr %9) #5
  call void @llvm.lifetime.start.p0(i64 8, ptr %10) #5
  %16 = load ptr, ptr %2, align 8, !tbaa !20
  %17 = call ptr @OSSL_PROVIDER_gettable_params(ptr noundef %16)
  store ptr %17, ptr %9, align 8, !tbaa !17
  %18 = call i32 @test_ptr(ptr noundef @.str.33, i32 noundef 115, ptr noundef @.str.47, ptr noundef %17)
  %19 = icmp ne i32 %18, 0
  br i1 %19, label %20, label %40

20:                                               ; preds = %1
  %21 = load ptr, ptr %9, align 8, !tbaa !17
  %22 = call ptr @OSSL_PARAM_locate_const(ptr noundef %21, ptr noundef @.str.49)
  store ptr %22, ptr %10, align 8, !tbaa !17
  %23 = call i32 @test_ptr(ptr noundef @.str.33, i32 noundef 116, ptr noundef @.str.48, ptr noundef %22)
  %24 = icmp ne i32 %23, 0
  br i1 %24, label %25, label %40

25:                                               ; preds = %20
  %26 = load ptr, ptr %9, align 8, !tbaa !17
  %27 = call ptr @OSSL_PARAM_locate_const(ptr noundef %26, ptr noundef @.str.51)
  store ptr %27, ptr %10, align 8, !tbaa !17
  %28 = call i32 @test_ptr(ptr noundef @.str.33, i32 noundef 117, ptr noundef @.str.50, ptr noundef %27)
  %29 = icmp ne i32 %28, 0
  br i1 %29, label %30, label %40

30:                                               ; preds = %25
  %31 = load ptr, ptr %9, align 8, !tbaa !17
  %32 = call ptr @OSSL_PARAM_locate_const(ptr noundef %31, ptr noundef @.str.35)
  store ptr %32, ptr %10, align 8, !tbaa !17
  %33 = call i32 @test_ptr(ptr noundef @.str.33, i32 noundef 118, ptr noundef @.str.52, ptr noundef %32)
  %34 = icmp ne i32 %33, 0
  br i1 %34, label %35, label %40

35:                                               ; preds = %30
  %36 = load ptr, ptr %9, align 8, !tbaa !17
  %37 = call ptr @OSSL_PARAM_locate_const(ptr noundef %36, ptr noundef @.str.54)
  store ptr %37, ptr %10, align 8, !tbaa !17
  %38 = call i32 @test_ptr(ptr noundef @.str.33, i32 noundef 119, ptr noundef @.str.53, ptr noundef %37)
  %39 = icmp ne i32 %38, 0
  br i1 %39, label %41, label %40

40:                                               ; preds = %35, %30, %25, %20, %1
  br label %98

41:                                               ; preds = %35
  %42 = getelementptr inbounds [5 x %struct.ossl_param_st], ptr %4, i64 0, i64 0
  call void @llvm.lifetime.start.p0(i64 40, ptr %11) #5
  call void @OSSL_PARAM_construct_utf8_ptr(ptr dead_on_unwind writable sret(%struct.ossl_param_st) align 8 %11, ptr noundef @.str.49, ptr noundef %5, i64 noundef 0)
  call void @llvm.memcpy.p0.p0.i64(ptr align 16 %42, ptr align 8 %11, i64 40, i1 false), !tbaa.struct !28
  call void @llvm.lifetime.end.p0(i64 40, ptr %11) #5
  %43 = getelementptr inbounds [5 x %struct.ossl_param_st], ptr %4, i64 0, i64 1
  call void @llvm.lifetime.start.p0(i64 40, ptr %12) #5
  call void @OSSL_PARAM_construct_utf8_ptr(ptr dead_on_unwind writable sret(%struct.ossl_param_st) align 8 %12, ptr noundef @.str.51, ptr noundef %6, i64 noundef 0)
  call void @llvm.memcpy.p0.p0.i64(ptr align 8 %43, ptr align 8 %12, i64 40, i1 false), !tbaa.struct !28
  call void @llvm.lifetime.end.p0(i64 40, ptr %12) #5
  %44 = getelementptr inbounds [5 x %struct.ossl_param_st], ptr %4, i64 0, i64 2
  call void @llvm.lifetime.start.p0(i64 40, ptr %13) #5
  call void @OSSL_PARAM_construct_int(ptr dead_on_unwind writable sret(%struct.ossl_param_st) align 8 %13, ptr noundef @.str.35, ptr noundef %8)
  call void @llvm.memcpy.p0.p0.i64(ptr align 16 %44, ptr align 8 %13, i64 40, i1 false), !tbaa.struct !28
  call void @llvm.lifetime.end.p0(i64 40, ptr %13) #5
  %45 = getelementptr inbounds [5 x %struct.ossl_param_st], ptr %4, i64 0, i64 3
  call void @llvm.lifetime.start.p0(i64 40, ptr %14) #5
  call void @OSSL_PARAM_construct_utf8_ptr(ptr dead_on_unwind writable sret(%struct.ossl_param_st) align 8 %14, ptr noundef @.str.54, ptr noundef %7, i64 noundef 0)
  call void @llvm.memcpy.p0.p0.i64(ptr align 8 %45, ptr align 8 %14, i64 40, i1 false), !tbaa.struct !28
  call void @llvm.lifetime.end.p0(i64 40, ptr %14) #5
  %46 = getelementptr inbounds [5 x %struct.ossl_param_st], ptr %4, i64 0, i64 4
  call void @llvm.lifetime.start.p0(i64 40, ptr %15) #5
  call void @OSSL_PARAM_construct_end(ptr dead_on_unwind writable sret(%struct.ossl_param_st) align 8 %15)
  call void @llvm.memcpy.p0.p0.i64(ptr align 16 %46, ptr align 8 %15, i64 40, i1 false), !tbaa.struct !28
  call void @llvm.lifetime.end.p0(i64 40, ptr %15) #5
  %47 = getelementptr inbounds [5 x %struct.ossl_param_st], ptr %4, i64 0, i64 0
  call void @OSSL_PARAM_set_all_unmodified(ptr noundef %47)
  %48 = load ptr, ptr %2, align 8, !tbaa !20
  %49 = getelementptr inbounds [5 x %struct.ossl_param_st], ptr %4, i64 0, i64 0
  %50 = call i32 @OSSL_PROVIDER_get_params(ptr noundef %48, ptr noundef %49)
  %51 = icmp ne i32 %50, 0
  %52 = zext i1 %51 to i32
  %53 = call i32 @test_true(ptr noundef @.str.33, i32 noundef 130, ptr noundef @.str.36, i32 noundef %52)
  %54 = icmp ne i32 %53, 0
  br i1 %54, label %56, label %55

55:                                               ; preds = %41
  br label %98

56:                                               ; preds = %41
  %57 = getelementptr inbounds [5 x %struct.ossl_param_st], ptr %4, i64 0, i64 0
  %58 = getelementptr inbounds %struct.ossl_param_st, ptr %57, i64 0
  %59 = call i32 @OSSL_PARAM_modified(ptr noundef %58)
  %60 = icmp ne i32 %59, 0
  %61 = zext i1 %60 to i32
  %62 = call i32 @test_true(ptr noundef @.str.33, i32 noundef 132, ptr noundef @.str.55, i32 noundef %61)
  %63 = icmp ne i32 %62, 0
  br i1 %63, label %64, label %96

64:                                               ; preds = %56
  %65 = getelementptr inbounds [5 x %struct.ossl_param_st], ptr %4, i64 0, i64 0
  %66 = getelementptr inbounds %struct.ossl_param_st, ptr %65, i64 1
  %67 = call i32 @OSSL_PARAM_modified(ptr noundef %66)
  %68 = icmp ne i32 %67, 0
  %69 = zext i1 %68 to i32
  %70 = call i32 @test_true(ptr noundef @.str.33, i32 noundef 133, ptr noundef @.str.56, i32 noundef %69)
  %71 = icmp ne i32 %70, 0
  br i1 %71, label %72, label %96

72:                                               ; preds = %64
  %73 = getelementptr inbounds [5 x %struct.ossl_param_st], ptr %4, i64 0, i64 0
  %74 = getelementptr inbounds %struct.ossl_param_st, ptr %73, i64 2
  %75 = call i32 @OSSL_PARAM_modified(ptr noundef %74)
  %76 = icmp ne i32 %75, 0
  %77 = zext i1 %76 to i32
  %78 = call i32 @test_true(ptr noundef @.str.33, i32 noundef 134, ptr noundef @.str.57, i32 noundef %77)
  %79 = icmp ne i32 %78, 0
  br i1 %79, label %80, label %96

80:                                               ; preds = %72
  %81 = getelementptr inbounds [5 x %struct.ossl_param_st], ptr %4, i64 0, i64 0
  %82 = getelementptr inbounds %struct.ossl_param_st, ptr %81, i64 3
  %83 = call i32 @OSSL_PARAM_modified(ptr noundef %82)
  %84 = icmp ne i32 %83, 0
  %85 = zext i1 %84 to i32
  %86 = call i32 @test_true(ptr noundef @.str.33, i32 noundef 135, ptr noundef @.str.58, i32 noundef %85)
  %87 = icmp ne i32 %86, 0
  br i1 %87, label %88, label %96

88:                                               ; preds = %80
  %89 = load i32, ptr %8, align 4, !tbaa !9
  %90 = icmp eq i32 %89, 1
  %91 = zext i1 %90 to i32
  %92 = icmp ne i32 %91, 0
  %93 = zext i1 %92 to i32
  %94 = call i32 @test_true(ptr noundef @.str.33, i32 noundef 136, ptr noundef @.str.37, i32 noundef %93)
  %95 = icmp ne i32 %94, 0
  br i1 %95, label %97, label %96

96:                                               ; preds = %88, %80, %72, %64, %56
  br label %98

97:                                               ; preds = %88
  store i32 1, ptr %3, align 4, !tbaa !9
  br label %98

98:                                               ; preds = %97, %96, %55, %40
  %99 = load i32, ptr %3, align 4, !tbaa !9
  call void @llvm.lifetime.end.p0(i64 8, ptr %10) #5
  call void @llvm.lifetime.end.p0(i64 8, ptr %9) #5
  call void @llvm.lifetime.end.p0(i64 4, ptr %8) #5
  call void @llvm.lifetime.end.p0(i64 8, ptr %7) #5
  call void @llvm.lifetime.end.p0(i64 8, ptr %6) #5
  call void @llvm.lifetime.end.p0(i64 8, ptr %5) #5
  call void @llvm.lifetime.end.p0(i64 200, ptr %4) #5
  call void @llvm.lifetime.end.p0(i64 4, ptr %3) #5
  ret i32 %99
}