; Function Attrs: nounwind uwtable
define internal fastcc range(i32 0, 2) i32 @get_provider_params(ptr noundef %0) unnamed_addr #1 {
  %2 = alloca [5 x %struct.ossl_param_st], align 16
  %3 = alloca ptr, align 8
  %4 = alloca ptr, align 8
  %5 = alloca ptr, align 8
  %6 = alloca i32, align 4
  %7 = alloca %struct.ossl_param_st, align 8
  %8 = alloca %struct.ossl_param_st, align 8
  %9 = alloca %struct.ossl_param_st, align 8
  %10 = alloca %struct.ossl_param_st, align 8
  call void @llvm.lifetime.start.p0(i64 200, ptr nonnull %2) #6
  call void @llvm.lifetime.start.p0(i64 8, ptr nonnull %3) #6
  call void @llvm.lifetime.start.p0(i64 8, ptr nonnull %4) #6
  call void @llvm.lifetime.start.p0(i64 8, ptr nonnull %5) #6
  call void @llvm.lifetime.start.p0(i64 4, ptr nonnull %6) #6
  %11 = tail call ptr @OSSL_PROVIDER_gettable_params(ptr noundef %0) #6
  %12 = tail call i32 @test_ptr(ptr noundef nonnull @.str.33, i32 noundef 115, ptr noundef nonnull @.str.47, ptr noundef %11) #6
  %.not = icmp eq i32 %12, 0
  br i1 %.not, label %59, label %13

13:                                               ; preds = %1
  %14 = tail call ptr @OSSL_PARAM_locate_const(ptr noundef %11, ptr noundef nonnull @.str.49) #6
  %15 = tail call i32 @test_ptr(ptr noundef nonnull @.str.33, i32 noundef 116, ptr noundef nonnull @.str.48, ptr noundef %14) #6
  %.not6 = icmp eq i32 %15, 0
  br i1 %.not6, label %59, label %16

16:                                               ; preds = %13
  %17 = tail call ptr @OSSL_PARAM_locate_const(ptr noundef %11, ptr noundef nonnull @.str.51) #6
  %18 = tail call i32 @test_ptr(ptr noundef nonnull @.str.33, i32 noundef 117, ptr noundef nonnull @.str.50, ptr noundef %17) #6
  %.not7 = icmp eq i32 %18, 0
  br i1 %.not7, label %59, label %19

19:                                               ; preds = %16
  %20 = tail call ptr @OSSL_PARAM_locate_const(ptr noundef %11, ptr noundef nonnull @.str.35) #6
  %21 = tail call i32 @test_ptr(ptr noundef nonnull @.str.33, i32 noundef 118, ptr noundef nonnull @.str.52, ptr noundef %20) #6
  %.not8 = icmp eq i32 %21, 0
  br i1 %.not8, label %59, label %22

22:                                               ; preds = %19
  %23 = tail call ptr @OSSL_PARAM_locate_const(ptr noundef %11, ptr noundef nonnull @.str.54) #6
  %24 = tail call i32 @test_ptr(ptr noundef nonnull @.str.33, i32 noundef 119, ptr noundef nonnull @.str.53, ptr noundef %23) #6
  %.not9 = icmp eq i32 %24, 0
  br i1 %.not9, label %59, label %25

25:                                               ; preds = %22
  call void @OSSL_PARAM_construct_utf8_ptr(ptr dead_on_unwind nonnull writable sret(%struct.ossl_param_st) align 8 %2, ptr noundef nonnull @.str.49, ptr noundef nonnull %3, i64 noundef 0) #6
  %26 = getelementptr inbounds nuw i8, ptr %2, i64 40
  call void @llvm.lifetime.start.p0(i64 40, ptr nonnull %7) #6
  call void @OSSL_PARAM_construct_utf8_ptr(ptr dead_on_unwind nonnull writable sret(%struct.ossl_param_st) align 8 %7, ptr noundef nonnull @.str.51, ptr noundef nonnull %4, i64 noundef 0) #6
  call void @llvm.memcpy.p0.p0.i64(ptr noundef nonnull align 8 dereferenceable(40) %26, ptr noundef nonnull align 8 dereferenceable(40) %7, i64 40, i1 false), !tbaa.struct !19
  call void @llvm.lifetime.end.p0(i64 40, ptr nonnull %7) #6
  %27 = getelementptr inbounds nuw i8, ptr %2, i64 80
  call void @llvm.lifetime.start.p0(i64 40, ptr nonnull %8) #6
  call void @OSSL_PARAM_construct_int(ptr dead_on_unwind nonnull writable sret(%struct.ossl_param_st) align 8 %8, ptr noundef nonnull @.str.35, ptr noundef nonnull %6) #6
  call void @llvm.memcpy.p0.p0.i64(ptr noundef nonnull align 16 dereferenceable(40) %27, ptr noundef nonnull align 8 dereferenceable(40) %8, i64 40, i1 false), !tbaa.struct !19
  call void @llvm.lifetime.end.p0(i64 40, ptr nonnull %8) #6
  %28 = getelementptr inbounds nuw i8, ptr %2, i64 120
  call void @llvm.lifetime.start.p0(i64 40, ptr nonnull %9) #6
  call void @OSSL_PARAM_construct_utf8_ptr(ptr dead_on_unwind nonnull writable sret(%struct.ossl_param_st) align 8 %9, ptr noundef nonnull @.str.54, ptr noundef nonnull %5, i64 noundef 0) #6
  call void @llvm.memcpy.p0.p0.i64(ptr noundef nonnull align 8 dereferenceable(40) %28, ptr noundef nonnull align 8 dereferenceable(40) %9, i64 40, i1 false), !tbaa.struct !19
  call void @llvm.lifetime.end.p0(i64 40, ptr nonnull %9) #6
  %29 = getelementptr inbounds nuw i8, ptr %2, i64 160
  call void @llvm.lifetime.start.p0(i64 40, ptr nonnull %10) #6
  call void @OSSL_PARAM_construct_end(ptr dead_on_unwind nonnull writable sret(%struct.ossl_param_st) align 8 %10) #6
  call void @llvm.memcpy.p0.p0.i64(ptr noundef nonnull align 16 dereferenceable(40) %29, ptr noundef nonnull align 8 dereferenceable(40) %10, i64 40, i1 false), !tbaa.struct !19
  call void @llvm.lifetime.end.p0(i64 40, ptr nonnull %10) #6
  call void @OSSL_PARAM_set_all_unmodified(ptr noundef nonnull %2) #6
  %30 = call i32 @OSSL_PROVIDER_get_params(ptr noundef %0, ptr noundef nonnull %2) #6
  %31 = icmp ne i32 %30, 0
  %32 = zext i1 %31 to i32
  %33 = call i32 @test_true(ptr noundef nonnull @.str.33, i32 noundef 130, ptr noundef nonnull @.str.36, i32 noundef %32) #6
  %.not10 = icmp eq i32 %33, 0
  br i1 %.not10, label %59, label %34

34:                                               ; preds = %25
  %35 = call i32 @OSSL_PARAM_modified(ptr noundef nonnull %2) #6
  %36 = icmp ne i32 %35, 0
  %37 = zext i1 %36 to i32
  %38 = call i32 @test_true(ptr noundef nonnull @.str.33, i32 noundef 132, ptr noundef nonnull @.str.55, i32 noundef %37) #6
  %.not11 = icmp eq i32 %38, 0
  br i1 %.not11, label %59, label %39

39:                                               ; preds = %34
  %40 = call i32 @OSSL_PARAM_modified(ptr noundef nonnull %26) #6
  %41 = icmp ne i32 %40, 0
  %42 = zext i1 %41 to i32
  %43 = call i32 @test_true(ptr noundef nonnull @.str.33, i32 noundef 133, ptr noundef nonnull @.str.56, i32 noundef %42) #6
  %.not12 = icmp eq i32 %43, 0
  br i1 %.not12, label %59, label %44

44:                                               ; preds = %39
  %45 = call i32 @OSSL_PARAM_modified(ptr noundef nonnull %27) #6
  %46 = icmp ne i32 %45, 0
  %47 = zext i1 %46 to i32
  %48 = call i32 @test_true(ptr noundef nonnull @.str.33, i32 noundef 134, ptr noundef nonnull @.str.57, i32 noundef %47) #6
  %.not13 = icmp eq i32 %48, 0
  br i1 %.not13, label %59, label %49

49:                                               ; preds = %44
  %50 = call i32 @OSSL_PARAM_modified(ptr noundef nonnull %28) #6
  %51 = icmp ne i32 %50, 0
  %52 = zext i1 %51 to i32
  %53 = call i32 @test_true(ptr noundef nonnull @.str.33, i32 noundef 135, ptr noundef nonnull @.str.58, i32 noundef %52) #6
  %.not14 = icmp eq i32 %53, 0
  br i1 %.not14, label %59, label %54

54:                                               ; preds = %49
  %55 = load i32, ptr %6, align 4, !tbaa !16
  %56 = icmp eq i32 %55, 1
  %57 = zext i1 %56 to i32
  %58 = call i32 @test_true(ptr noundef nonnull @.str.33, i32 noundef 136, ptr noundef nonnull @.str.37, i32 noundef %57) #6
  %.not15 = icmp ne i32 %58, 0
  %spec.select = zext i1 %.not15 to i32
  br label %59

59:                                               ; preds = %54, %34, %39, %44, %49, %25, %1, %13, %16, %19, %22
  %.0 = phi i32 [ 0, %49 ], [ 0, %44 ], [ 0, %39 ], [ 0, %34 ], [ 0, %25 ], [ 0, %22 ], [ 0, %19 ], [ 0, %16 ], [ 0, %13 ], [ 0, %1 ], [ %spec.select, %54 ]
  call void @llvm.lifetime.end.p0(i64 4, ptr nonnull %6) #6
  call void @llvm.lifetime.end.p0(i64 8, ptr nonnull %5) #6
  call void @llvm.lifetime.end.p0(i64 8, ptr nonnull %4) #6
  call void @llvm.lifetime.end.p0(i64 8, ptr nonnull %3) #6
  call void @llvm.lifetime.end.p0(i64 200, ptr nonnull %2) #6
  ret i32 %.0
}